(dp0
S'.'
p1
(lp2
S'data/cut/ebay-captcha-0_0000.000000.wav'
p3
aS'data/cut/ebay-captcha-0_0004.728875.wav'
p4
aS'data/cut/ebay-captcha-10_0000.000000.wav'
p5
aS'data/cut/ebay-captcha-10_0002.973125.wav'
p6
aS'data/cut/ebay-captcha-11_0000.638375.wav'
p7
aS'data/cut/ebay-captcha-12_0000.000000.wav'
p8
aS'data/cut/ebay-captcha-12_0002.723125.wav'
p9
aS'data/cut/ebay-captcha-12_0003.803125.wav'
p10
aS'data/cut/ebay-captcha-12_0003.985000.wav'
p11
aS'data/cut/ebay-captcha-12_0004.171250.wav'
p12
aS'data/cut/ebay-captcha-13_0000.000000.wav'
p13
aS'data/cut/ebay-captcha-13_0001.748250.wav'
p14
aS'data/cut/ebay-captcha-13_0002.946500.wav'
p15
aS'data/cut/ebay-captcha-14_0000.000000.wav'
p16
aS'data/cut/ebay-captcha-14_0001.441625.wav'
p17
aS'data/cut/ebay-captcha-14_0002.791625.wav'
p18
aS'data/cut/ebay-captcha-15_0000.612875.wav'
p19
aS'data/cut/ebay-captcha-16_0000.653500.wav'
p20
aS'data/cut/ebay-captcha-16_0001.748250.wav'
p21
aS'data/cut/ebay-captcha-16_0002.045000.wav'
p22
aS'data/cut/ebay-captcha-17_0000.000000.wav'
p23
aS'data/cut/ebay-captcha-17_0001.569250.wav'
p24
aS'data/cut/ebay-captcha-17_0003.527500.wav'
p25
aS'data/cut/ebay-captcha-18_0002.673875.wav'
p26
aS'data/cut/ebay-captcha-18_0003.049500.wav'
p27
aS'data/cut/ebay-captcha-19_0000.000000.wav'
p28
aS'data/cut/ebay-captcha-19_0000.782500.wav'
p29
aS'data/cut/ebay-captcha-19_0001.192625.wav'
p30
aS'data/cut/ebay-captcha-19_0001.658500.wav'
p31
aS'data/cut/ebay-captcha-19_0002.756375.wav'
p32
aS'data/cut/ebay-captcha-19_0003.716500.wav'
p33
aS'data/cut/ebay-captcha-19_0004.575625.wav'
p34
aS'data/cut/ebay-captcha-1_0000.000000.wav'
p35
aS'data/cut/ebay-captcha-1_0002.548375.wav'
p36
aS'data/cut/ebay-captcha-1_0003.221500.wav'
p37
aS'data/cut/ebay-captcha-20_0000.000000.wav'
p38
aS'data/cut/ebay-captcha-20_0001.034375.wav'
p39
aS'data/cut/ebay-captcha-20_0001.446625.wav'
p40
aS'data/cut/ebay-captcha-20_0003.407250.wav'
p41
aS'data/cut/ebay-captcha-21_0000.000000.wav'
p42
aS'data/cut/ebay-captcha-22_0000.000000.wav'
p43
aS'data/cut/ebay-captcha-22_0002.795125.wav'
p44
aS'data/cut/ebay-captcha-23_0000.000000.wav'
p45
aS'data/cut/ebay-captcha-23_0003.978500.wav'
p46
aS'data/cut/ebay-captcha-24_0000.000000.wav'
p47
aS'data/cut/ebay-captcha-24_0001.642000.wav'
p48
aS'data/cut/ebay-captcha-24_0002.587625.wav'
p49
aS'data/cut/ebay-captcha-25_0000.000000.wav'
p50
aS'data/cut/ebay-captcha-25_0002.860000.wav'
p51
aS'data/cut/ebay-captcha-26_0000.000000.wav'
p52
aS'data/cut/ebay-captcha-26_0000.751625.wav'
p53
aS'data/cut/ebay-captcha-26_0002.792000.wav'
p54
aS'data/cut/ebay-captcha-27_0000.613250.wav'
p55
aS'data/cut/ebay-captcha-28_0000.618125.wav'
p56
aS'data/cut/ebay-captcha-28_0001.456250.wav'
p57
aS'data/cut/ebay-captcha-28_0001.915750.wav'
p58
aS'data/cut/ebay-captcha-28_0002.920250.wav'
p59
aS'data/cut/ebay-captcha-29_0000.000000.wav'
p60
aS'data/cut/ebay-captcha-29_0001.441000.wav'
p61
aS'data/cut/ebay-captcha-29_0002.577125.wav'
p62
aS'data/cut/ebay-captcha-2_0000.000000.wav'
p63
aS'data/cut/ebay-captcha-2_0002.346375.wav'
p64
aS'data/cut/ebay-captcha-30_0000.000000.wav'
p65
aS'data/cut/ebay-captcha-30_0004.007750.wav'
p66
aS'data/cut/ebay-captcha-31_0000.000000.wav'
p67
aS'data/cut/ebay-captcha-31_0000.596875.wav'
p68
aS'data/cut/ebay-captcha-31_0001.969625.wav'
p69
aS'data/cut/ebay-captcha-31_0003.227375.wav'
p70
aS'data/cut/ebay-captcha-31_0003.411250.wav'
p71
aS'data/cut/ebay-captcha-32_0000.000000.wav'
p72
aS'data/cut/ebay-captcha-32_0000.762000.wav'
p73
aS'data/cut/ebay-captcha-32_0002.605875.wav'
p74
aS'data/cut/ebay-captcha-33_0000.000000.wav'
p75
aS'data/cut/ebay-captcha-33_0001.551750.wav'
p76
aS'data/cut/ebay-captcha-33_0002.728500.wav'
p77
aS'data/cut/ebay-captcha-33_0004.058000.wav'
p78
aS'data/cut/ebay-captcha-33_0004.240000.wav'
p79
aS'data/cut/ebay-captcha-33_0004.505875.wav'
p80
aS'data/cut/ebay-captcha-34_0000.000000.wav'
p81
aS'data/cut/ebay-captcha-34_0002.211125.wav'
p82
aS'data/cut/ebay-captcha-34_0003.785750.wav'
p83
aS'data/cut/ebay-captcha-35_0000.000000.wav'
p84
aS'data/cut/ebay-captcha-35_0001.395875.wav'
p85
aS'data/cut/ebay-captcha-35_0002.513875.wav'
p86
aS'data/cut/ebay-captcha-35_0003.375125.wav'
p87
aS'data/cut/ebay-captcha-36_0000.612875.wav'
p88
aS'data/cut/ebay-captcha-36_0003.353625.wav'
p89
aS'data/cut/ebay-captcha-36_0003.537875.wav'
p90
aS'data/cut/ebay-captcha-37_0000.613250.wav'
p91
aS'data/cut/ebay-captcha-37_0003.321375.wav'
p92
aS'data/cut/ebay-captcha-37_0003.534875.wav'
p93
aS'data/cut/ebay-captcha-38_0000.000000.wav'
p94
aS'data/cut/ebay-captcha-38_0000.762000.wav'
p95
aS'data/cut/ebay-captcha-38_0002.662625.wav'
p96
aS'data/cut/ebay-captcha-38_0003.843875.wav'
p97
aS'data/cut/ebay-captcha-39_0000.653500.wav'
p98
aS'data/cut/ebay-captcha-39_0001.441375.wav'
p99
aS'data/cut/ebay-captcha-39_0002.732000.wav'
p100
aS'data/cut/ebay-captcha-39_0003.481875.wav'
p101
aS'data/cut/ebay-captcha-3_0000.000000.wav'
p102
aS'data/cut/ebay-captcha-3_0002.215625.wav'
p103
aS'data/cut/ebay-captcha-3_0003.110000.wav'
p104
aS'data/cut/ebay-captcha-3_0003.863250.wav'
p105
aS'data/cut/ebay-captcha-40_0000.000000.wav'
p106
aS'data/cut/ebay-captcha-40_0001.286750.wav'
p107
aS'data/cut/ebay-captcha-40_0002.351375.wav'
p108
aS'data/cut/ebay-captcha-42_0000.612875.wav'
p109
aS'data/cut/ebay-captcha-42_0003.169500.wav'
p110
aS'data/cut/ebay-captcha-42_0004.065000.wav'
p111
aS'data/cut/ebay-captcha-43_0000.000000.wav'
p112
aS'data/cut/ebay-captcha-43_0003.236125.wav'
p113
aS'data/cut/ebay-captcha-44_0000.000000.wav'
p114
aS'data/cut/ebay-captcha-44_0002.755375.wav'
p115
aS'data/cut/ebay-captcha-44_0003.198000.wav'
p116
aS'data/cut/ebay-captcha-45_0000.000000.wav'
p117
aS'data/cut/ebay-captcha-45_0001.286500.wav'
p118
aS'data/cut/ebay-captcha-45_0004.539875.wav'
p119
aS'data/cut/ebay-captcha-46_0000.000000.wav'
p120
aS'data/cut/ebay-captcha-46_0000.745625.wav'
p121
aS'data/cut/ebay-captcha-46_0001.771375.wav'
p122
aS'data/cut/ebay-captcha-46_0001.937750.wav'
p123
aS'data/cut/ebay-captcha-46_0002.234500.wav'
p124
aS'data/cut/ebay-captcha-46_0003.561375.wav'
p125
aS'data/cut/ebay-captcha-46_0003.727875.wav'
p126
aS'data/cut/ebay-captcha-47_0000.000000.wav'
p127
aS'data/cut/ebay-captcha-47_0003.768000.wav'
p128
aS'data/cut/ebay-captcha-49_0000.000000.wav'
p129
aS'data/cut/ebay-captcha-49_0001.073750.wav'
p130
aS'data/cut/ebay-captcha-4_0000.000000.wav'
p131
aS'data/cut/ebay-captcha-4_0000.571000.wav'
p132
aS'data/cut/ebay-captcha-4_0002.225250.wav'
p133
aS'data/cut/ebay-captcha-4_0003.261000.wav'
p134
aS'data/cut/ebay-captcha-5_0000.000000.wav'
p135
aS'data/cut/ebay-captcha-5_0001.967750.wav'
p136
aS'data/cut/ebay-captcha-6_0000.000000.wav'
p137
aS'data/cut/ebay-captcha-6_0001.522500.wav'
p138
aS'data/cut/ebay-captcha-6_0002.982375.wav'
p139
aS'data/cut/ebay-captcha-6_0003.874875.wav'
p140
aS'data/cut/ebay-captcha-7_0000.618125.wav'
p141
aS'data/cut/ebay-captcha-7_0003.074250.wav'
p142
aS'data/cut/ebay-captcha-7_0003.732375.wav'
p143
aS'data/cut/ebay-captcha-7_0004.350375.wav'
p144
aS'data/cut/ebay-captcha-8_0000.000000.wav'
p145
aS'data/cut/ebay-captcha-8_0002.215625.wav'
p146
aS'data/cut/ebay-captcha-9_0000.000000.wav'
p147
aS'data/cut/ebay-captcha-9_0001.771375.wav'
p148
aS'data/cut/ebay-captcha-9_0001.937750.wav'
p149
aS'data/cut/ebay-captcha-9_0002.232500.wav'
p150
aS'data/cut/ebay-captcha-9_0003.090375.wav'
p151
asS'1'
p152
(lp153
S'data/cut/ebay-captcha-0_0000.778750.wav'
p154
aS'data/cut/ebay-captcha-10_0001.067125.wav'
p155
aS'data/cut/ebay-captcha-11_0000.840750.wav'
p156
aS'data/cut/ebay-captcha-12_0000.842125.wav'
p157
aS'data/cut/ebay-captcha-13_0000.967375.wav'
p158
aS'data/cut/ebay-captcha-14_0000.909375.wav'
p159
aS'data/cut/ebay-captcha-15_0000.747250.wav'
p160
aS'data/cut/ebay-captcha-16_0000.996375.wav'
p161
aS'data/cut/ebay-captcha-17_0001.124625.wav'
p162
aS'data/cut/ebay-captcha-18_0000.627000.wav'
p163
aS'data/cut/ebay-captcha-1_0000.898875.wav'
p164
aS'data/cut/ebay-captcha-21_0001.146625.wav'
p165
aS'data/cut/ebay-captcha-22_0000.791000.wav'
p166
aS'data/cut/ebay-captcha-23_0000.775500.wav'
p167
aS'data/cut/ebay-captcha-24_0001.188750.wav'
p168
aS'data/cut/ebay-captcha-25_0001.002375.wav'
p169
aS'data/cut/ebay-captcha-26_0001.067125.wav'
p170
aS'data/cut/ebay-captcha-27_0000.941625.wav'
p171
aS'data/cut/ebay-captcha-28_0001.002375.wav'
p172
aS'data/cut/ebay-captcha-29_0000.980750.wav'
p173
aS'data/cut/ebay-captcha-2_0000.620500.wav'
p174
aS'data/cut/ebay-captcha-31_0001.002375.wav'
p175
aS'data/cut/ebay-captcha-32_0000.923250.wav'
p176
aS'data/cut/ebay-captcha-33_0000.980750.wav'
p177
aS'data/cut/ebay-captcha-34_0000.898875.wav'
p178
aS'data/cut/ebay-captcha-35_0000.845625.wav'
p179
aS'data/cut/ebay-captcha-36_0000.747250.wav'
p180
aS'data/cut/ebay-captcha-37_0000.941625.wav'
p181
aS'data/cut/ebay-captcha-38_0000.923250.wav'
p182
aS'data/cut/ebay-captcha-39_0000.996375.wav'
p183
aS'data/cut/ebay-captcha-3_0001.164375.wav'
p184
aS'data/cut/ebay-captcha-40_0000.923875.wav'
p185
aS'data/cut/ebay-captcha-41_0000.775250.wav'
p186
aS'data/cut/ebay-captcha-42_0000.747250.wav'
p187
aS'data/cut/ebay-captcha-43_0000.874125.wav'
p188
aS'data/cut/ebay-captcha-44_0000.712125.wav'
p189
aS'data/cut/ebay-captcha-45_0000.923875.wav'
p190
aS'data/cut/ebay-captcha-46_0001.100625.wav'
p191
aS'data/cut/ebay-captcha-47_0000.672625.wav'
p192
aS'data/cut/ebay-captcha-49_0000.712375.wav'
p193
aS'data/cut/ebay-captcha-4_0000.939125.wav'
p194
aS'data/cut/ebay-captcha-5_0000.909375.wav'
p195
aS'data/cut/ebay-captcha-6_0001.067125.wav'
p196
aS'data/cut/ebay-captcha-7_0001.002375.wav'
p197
aS'data/cut/ebay-captcha-8_0001.164375.wav'
p198
aS'data/cut/ebay-captcha-9_0001.100625.wav'
p199
asS'0'
p200
(lp201
S'data/cut/ebay-captcha-0_0002.086625.wav'
p202
aS'data/cut/ebay-captcha-10_0001.982375.wav'
p203
aS'data/cut/ebay-captcha-11_0001.415625.wav'
p204
aS'data/cut/ebay-captcha-12_0002.146875.wav'
p205
aS'data/cut/ebay-captcha-13_0001.581000.wav'
p206
aS'data/cut/ebay-captcha-14_0001.677625.wav'
p207
aS'data/cut/ebay-captcha-15_0001.234125.wav'
p208
aS'data/cut/ebay-captcha-16_0001.581000.wav'
p209
aS'data/cut/ebay-captcha-17_0001.824750.wav'
p210
aS'data/cut/ebay-captcha-18_0002.045625.wav'
p211
aS'data/cut/ebay-captcha-19_0002.184250.wav'
p212
aS'data/cut/ebay-captcha-1_0001.356875.wav'
p213
aS'data/cut/ebay-captcha-20_0001.768875.wav'
p214
aS'data/cut/ebay-captcha-21_0001.610000.wav'
p215
aS'data/cut/ebay-captcha-22_0001.248750.wav'
p216
aS'data/cut/ebay-captcha-23_0001.819125.wav'
p217
aS'data/cut/ebay-captcha-24_0002.022875.wav'
p218
aS'data/cut/ebay-captcha-25_0001.793000.wav'
p219
aS'data/cut/ebay-captcha-26_0001.522500.wav'
p220
aS'data/cut/ebay-captcha-27_0001.856125.wav'
p221
aS'data/cut/ebay-captcha-28_0001.621750.wav'
p222
aS'data/cut/ebay-captcha-29_0001.699375.wav'
p223
aS'data/cut/ebay-captcha-2_0001.105250.wav'
p224
aS'data/cut/ebay-captcha-30_0001.982375.wav'
p225
aS'data/cut/ebay-captcha-31_0001.424375.wav'
p226
aS'data/cut/ebay-captcha-32_0001.302250.wav'
p227
aS'data/cut/ebay-captcha-33_0002.121125.wav'
p228
aS'data/cut/ebay-captcha-34_0001.638625.wav'
p229
aS'data/cut/ebay-captcha-35_0001.636750.wav'
p230
aS'data/cut/ebay-captcha-36_0001.226750.wav'
p231
aS'data/cut/ebay-captcha-37_0001.766625.wav'
p232
aS'data/cut/ebay-captcha-38_0001.352375.wav'
p233
aS'data/cut/ebay-captcha-39_0001.519500.wav'
p234
aS'data/cut/ebay-captcha-3_0001.708875.wav'
p235
aS'data/cut/ebay-captcha-40_0001.511375.wav'
p236
aS'data/cut/ebay-captcha-41_0001.385250.wav'
p237
aS'data/cut/ebay-captcha-42_0001.603625.wav'
p238
aS'data/cut/ebay-captcha-43_0001.328625.wav'
p239
aS'data/cut/ebay-captcha-44_0001.184125.wav'
p240
aS'data/cut/ebay-captcha-45_0001.729875.wav'
p241
aS'data/cut/ebay-captcha-47_0001.045625.wav'
p242
aS'data/cut/ebay-captcha-49_0001.297750.wav'
p243
aS'data/cut/ebay-captcha-4_0001.729875.wav'
p244
aS'data/cut/ebay-captcha-5_0001.473125.wav'
p245
aS'data/cut/ebay-captcha-7_0001.443125.wav'
p246
aS'data/cut/ebay-captcha-8_0001.708875.wav'
p247
asS'3'
p248
(lp249
S'data/cut/ebay-captcha-0_0004.256875.wav'
p250
aS'data/cut/ebay-captcha-10_0004.002875.wav'
p251
aS'data/cut/ebay-captcha-11_0003.540000.wav'
p252
aS'data/cut/ebay-captcha-12_0004.309875.wav'
p253
aS'data/cut/ebay-captcha-13_0003.874750.wav'
p254
aS'data/cut/ebay-captcha-13_0004.007125.wav'
p255
aS'data/cut/ebay-captcha-14_0003.538000.wav'
p256
aS'data/cut/ebay-captcha-15_0004.114500.wav'
p257
aS'data/cut/ebay-captcha-16_0003.419250.wav'
p258
aS'data/cut/ebay-captcha-18_0003.812000.wav'
p259
aS'data/cut/ebay-captcha-19_0004.696750.wav'
p260
aS'data/cut/ebay-captcha-1_0003.367625.wav'
p261
aS'data/cut/ebay-captcha-20_0004.175625.wav'
p262
aS'data/cut/ebay-captcha-21_0003.685625.wav'
p263
aS'data/cut/ebay-captcha-21_0003.817000.wav'
p264
aS'data/cut/ebay-captcha-22_0003.543875.wav'
p265
aS'data/cut/ebay-captcha-23_0004.250875.wav'
p266
aS'data/cut/ebay-captcha-24_0004.381500.wav'
p267
aS'data/cut/ebay-captcha-25_0003.626625.wav'
p268
aS'data/cut/ebay-captcha-26_0003.286500.wav'
p269
aS'data/cut/ebay-captcha-27_0003.712875.wav'
p270
aS'data/cut/ebay-captcha-28_0003.661125.wav'
p271
aS'data/cut/ebay-captcha-29_0004.258000.wav'
p272
aS'data/cut/ebay-captcha-30_0004.367125.wav'
p273
aS'data/cut/ebay-captcha-31_0003.556625.wav'
p274
aS'data/cut/ebay-captcha-32_0003.372875.wav'
p275
aS'data/cut/ebay-captcha-34_0004.063875.wav'
p276
aS'data/cut/ebay-captcha-36_0003.681750.wav'
p277
aS'data/cut/ebay-captcha-37_0003.816375.wav'
p278
aS'data/cut/ebay-captcha-38_0003.364500.wav'
p279
aS'data/cut/ebay-captcha-39_0003.749250.wav'
p280
aS'data/cut/ebay-captcha-3_0004.126500.wav'
p281
aS'data/cut/ebay-captcha-40_0003.607000.wav'
p282
aS'data/cut/ebay-captcha-42_0004.194875.wav'
p283
aS'data/cut/ebay-captcha-43_0003.500000.wav'
p284
aS'data/cut/ebay-captcha-45_0004.066625.wav'
p285
aS'data/cut/ebay-captcha-46_0003.869625.wav'
p286
aS'data/cut/ebay-captcha-47_0003.294125.wav'
p287
aS'data/cut/ebay-captcha-49_0003.560875.wav'
p288
aS'data/cut/ebay-captcha-5_0003.687625.wav'
p289
aS'data/cut/ebay-captcha-6_0004.007125.wav'
p290
aS'data/cut/ebay-captcha-7_0003.875500.wav'
p291
aS'data/cut/ebay-captcha-8_0003.913750.wav'
p292
aS'data/cut/ebay-captcha-9_0003.988375.wav'
p293
asS'2'
p294
(lp295
S'data/cut/ebay-captcha-0_0002.659500.wav'
p296
aS'data/cut/ebay-captcha-10_0002.609750.wav'
p297
aS'data/cut/ebay-captcha-11_0002.226375.wav'
p298
aS'data/cut/ebay-captcha-12_0002.933625.wav'
p299
aS'data/cut/ebay-captcha-13_0002.274750.wav'
p300
aS'data/cut/ebay-captcha-15_0002.097125.wav'
p301
aS'data/cut/ebay-captcha-16_0002.196250.wav'
p302
aS'data/cut/ebay-captcha-17_0002.854500.wav'
p303
aS'data/cut/ebay-captcha-19_0003.041500.wav'
p304
aS'data/cut/ebay-captcha-1_0002.069000.wav'
p305
aS'data/cut/ebay-captcha-20_0002.728250.wav'
p306
aS'data/cut/ebay-captcha-21_0002.323375.wav'
p307
aS'data/cut/ebay-captcha-22_0002.020625.wav'
p308
aS'data/cut/ebay-captcha-23_0002.532500.wav'
p309
aS'data/cut/ebay-captcha-24_0002.765875.wav'
p310
aS'data/cut/ebay-captcha-25_0002.353875.wav'
p311
aS'data/cut/ebay-captcha-26_0002.429500.wav'
p312
aS'data/cut/ebay-captcha-27_0002.572000.wav'
p313
aS'data/cut/ebay-captcha-28_0002.163000.wav'
p314
aS'data/cut/ebay-captcha-29_0002.788500.wav'
p315
aS'data/cut/ebay-captcha-2_0001.840500.wav'
p316
aS'data/cut/ebay-captcha-30_0002.665125.wav'
p317
aS'data/cut/ebay-captcha-31_0002.134375.wav'
p318
aS'data/cut/ebay-captcha-32_0002.094875.wav'
p319
aS'data/cut/ebay-captcha-33_0002.975625.wav'
p320
aS'data/cut/ebay-captcha-34_0002.428250.wav'
p321
aS'data/cut/ebay-captcha-35_0002.726250.wav'
p322
aS'data/cut/ebay-captcha-36_0002.019250.wav'
p323
aS'data/cut/ebay-captcha-37_0002.377500.wav'
p324
aS'data/cut/ebay-captcha-38_0002.020625.wav'
p325
aS'data/cut/ebay-captcha-39_0002.224375.wav'
p326
aS'data/cut/ebay-captcha-3_0002.445875.wav'
p327
aS'data/cut/ebay-captcha-40_0002.514000.wav'
p328
aS'data/cut/ebay-captcha-41_0002.445875.wav'
p329
aS'data/cut/ebay-captcha-42_0002.338750.wav'
p330
aS'data/cut/ebay-captcha-43_0001.906375.wav'
p331
aS'data/cut/ebay-captcha-44_0002.083125.wav'
p332
aS'data/cut/ebay-captcha-45_0002.478250.wav'
p333
aS'data/cut/ebay-captcha-46_0002.387000.wav'
p334
aS'data/cut/ebay-captcha-47_0001.717625.wav'
p335
aS'data/cut/ebay-captcha-49_0002.005250.wav'
p336
aS'data/cut/ebay-captcha-4_0002.387750.wav'
p337
aS'data/cut/ebay-captcha-5_0002.134375.wav'
p338
aS'data/cut/ebay-captcha-7_0002.338750.wav'
p339
aS'data/cut/ebay-captcha-8_0002.445875.wav'
p340
aS'data/cut/ebay-captcha-9_0002.412625.wav'
p341
asS'5'
p342
(lp343
S'data/cut/ebay-captcha-0_0000.268125.wav'
p344
aS'data/cut/ebay-captcha-10_0000.453375.wav'
p345
aS'data/cut/ebay-captcha-11_0000.000000.wav'
p346
aS'data/cut/ebay-captcha-12_0000.191625.wav'
p347
aS'data/cut/ebay-captcha-13_0000.453375.wav'
p348
aS'data/cut/ebay-captcha-14_0000.070500.wav'
p349
aS'data/cut/ebay-captcha-15_0000.000000.wav'
p350
aS'data/cut/ebay-captcha-16_0000.000000.wav'
p351
aS'data/cut/ebay-captcha-17_0000.453375.wav'
p352
aS'data/cut/ebay-captcha-18_0000.000000.wav'
p353
aS'data/cut/ebay-captcha-19_0000.266500.wav'
p354
aS'data/cut/ebay-captcha-1_0000.268125.wav'
p355
aS'data/cut/ebay-captcha-20_0000.462750.wav'
p356
aS'data/cut/ebay-captcha-21_0000.462750.wav'
p357
aS'data/cut/ebay-captcha-22_0000.070500.wav'
p358
aS'data/cut/ebay-captcha-23_0000.266500.wav'
p359
aS'data/cut/ebay-captcha-24_0000.191625.wav'
p360
aS'data/cut/ebay-captcha-25_0000.070500.wav'
p361
aS'data/cut/ebay-captcha-26_0000.266500.wav'
p362
aS'data/cut/ebay-captcha-27_0000.000000.wav'
p363
aS'data/cut/ebay-captcha-28_0000.000000.wav'
p364
aS'data/cut/ebay-captcha-29_0000.268125.wav'
p365
aS'data/cut/ebay-captcha-2_0000.097125.wav'
p366
aS'data/cut/ebay-captcha-30_0000.070500.wav'
p367
aS'data/cut/ebay-captcha-31_0000.142375.wav'
p368
aS'data/cut/ebay-captcha-32_0000.266500.wav'
p369
aS'data/cut/ebay-captcha-33_0000.266500.wav'
p370
aS'data/cut/ebay-captcha-34_0000.266500.wav'
p371
aS'data/cut/ebay-captcha-35_0000.097125.wav'
p372
aS'data/cut/ebay-captcha-36_0000.000000.wav'
p373
aS'data/cut/ebay-captcha-37_0000.000000.wav'
p374
aS'data/cut/ebay-captcha-38_0000.266500.wav'
p375
aS'data/cut/ebay-captcha-39_0000.000000.wav'
p376
aS'data/cut/ebay-captcha-3_0000.191625.wav'
p377
aS'data/cut/ebay-captcha-40_0000.453375.wav'
p378
aS'data/cut/ebay-captcha-41_0000.000000.wav'
p379
aS'data/cut/ebay-captcha-42_0000.000000.wav'
p380
aS'data/cut/ebay-captcha-43_0000.268125.wav'
p381
aS'data/cut/ebay-captcha-44_0000.142375.wav'
p382
aS'data/cut/ebay-captcha-45_0000.453375.wav'
p383
aS'data/cut/ebay-captcha-46_0000.266500.wav'
p384
aS'data/cut/ebay-captcha-47_0000.097125.wav'
p385
aS'data/cut/ebay-captcha-49_0000.070500.wav'
p386
aS'data/cut/ebay-captcha-4_0000.097125.wav'
p387
aS'data/cut/ebay-captcha-5_0000.142375.wav'
p388
aS'data/cut/ebay-captcha-6_0000.268125.wav'
p389
aS'data/cut/ebay-captcha-7_0000.000000.wav'
p390
aS'data/cut/ebay-captcha-8_0000.191625.wav'
p391
aS'data/cut/ebay-captcha-9_0000.268125.wav'
p392
asS'6'
p393
(lp394
S'data/cut/ebay-captcha-0_0003.543125.wav'
p395
aS'data/cut/ebay-captcha-10_0003.230250.wav'
p396
aS'data/cut/ebay-captcha-11_0003.087375.wav'
p397
aS'data/cut/ebay-captcha-12_0003.552375.wav'
p398
aS'data/cut/ebay-captcha-13_0003.387125.wav'
p399
aS'data/cut/ebay-captcha-14_0003.043625.wav'
p400
aS'data/cut/ebay-captcha-15_0003.238625.wav'
p401
aS'data/cut/ebay-captcha-16_0002.896750.wav'
p402
aS'data/cut/ebay-captcha-17_0003.787500.wav'
p403
aS'data/cut/ebay-captcha-18_0003.174750.wav'
p404
aS'data/cut/ebay-captcha-19_0003.969750.wav'
p405
aS'data/cut/ebay-captcha-1_0002.669125.wav'
p406
aS'data/cut/ebay-captcha-20_0003.539750.wav'
p407
aS'data/cut/ebay-captcha-21_0003.198000.wav'
p408
aS'data/cut/ebay-captcha-22_0002.919000.wav'
p409
aS'data/cut/ebay-captcha-23_0003.501375.wav'
p410
aS'data/cut/ebay-captcha-24_0003.480375.wav'
p411
aS'data/cut/ebay-captcha-25_0002.984875.wav'
p412
aS'data/cut/ebay-captcha-26_0002.921500.wav'
p413
aS'data/cut/ebay-captcha-27_0003.274375.wav'
p414
aS'data/cut/ebay-captcha-28_0003.042000.wav'
p415
aS'data/cut/ebay-captcha-29_0003.829000.wav'
p416
aS'data/cut/ebay-captcha-2_0002.602500.wav'
p417
aS'data/cut/ebay-captcha-30_0003.519750.wav'
p418
aS'data/cut/ebay-captcha-31_0002.787375.wav'
p419
aS'data/cut/ebay-captcha-32_0002.732125.wav'
p420
aS'data/cut/ebay-captcha-33_0003.804625.wav'
p421
aS'data/cut/ebay-captcha-34_0003.314125.wav'
p422
aS'data/cut/ebay-captcha-35_0003.489250.wav'
p423
aS'data/cut/ebay-captcha-36_0002.915000.wav'
p424
aS'data/cut/ebay-captcha-37_0003.090125.wav'
p425
aS'data/cut/ebay-captcha-38_0002.795250.wav'
p426
aS'data/cut/ebay-captcha-39_0002.856000.wav'
p427
aS'data/cut/ebay-captcha-3_0003.228375.wav'
p428
aS'data/cut/ebay-captcha-40_0003.170125.wav'
p429
aS'data/cut/ebay-captcha-41_0003.230250.wav'
p430
aS'data/cut/ebay-captcha-42_0003.291000.wav'
p431
aS'data/cut/ebay-captcha-43_0002.754500.wav'
p432
aS'data/cut/ebay-captcha-45_0003.513250.wav'
p433
aS'data/cut/ebay-captcha-46_0003.087375.wav'
p434
aS'data/cut/ebay-captcha-47_0002.701500.wav'
p435
aS'data/cut/ebay-captcha-49_0002.781875.wav'
p436
aS'data/cut/ebay-captcha-5_0002.906250.wav'
p437
aS'data/cut/ebay-captcha-6_0003.103750.wav'
p438
aS'data/cut/ebay-captcha-7_0003.213125.wav'
p439
aS'data/cut/ebay-captcha-8_0003.438625.wav'
p440
aS'data/cut/ebay-captcha-9_0003.224375.wav'
p441
as.